; ModuleID = 'source-C-CXX/18/2482.c'
source_filename = "source-C-CXX/18/2482.c"
target datalayout = "e-m:e-p270:32:32-p271:32:32-p272:64:64-i64:64-f80:128-n8:16:32:64-S128"
target triple = "x86_64-pc-linux-gnu"

@.str = private unnamed_addr constant [5 x i8] c"%s%c\00", align 1

; Function Attrs: nounwind sspstrong uwtable
define dso_local void @main() local_unnamed_addr #0 {
  %1 = alloca [100 x [100 x i8]], align 16
  %2 = alloca [100 x i8], align 16
  %3 = alloca [100 x i8], align 16
  %4 = alloca i8, align 1
  %5 = getelementptr inbounds [100 x [100 x i8]], [100 x [100 x i8]]* %1, i64 0, i64 0, i64 0
  call void @llvm.lifetime.start.p0i8(i64 10000, i8* nonnull %5) #6
  %6 = getelementptr inbounds [100 x i8], [100 x i8]* %2, i64 0, i64 0
  call void @llvm.lifetime.start.p0i8(i64 100, i8* nonnull %6) #6
  %7 = getelementptr inbounds [100 x i8], [100 x i8]* %3, i64 0, i64 0
  call void @llvm.lifetime.start.p0i8(i64 100, i8* nonnull %7) #6
  call void @llvm.lifetime.start.p0i8(i64 1, i8* nonnull %4) #6
  br label %8

8:                                                ; preds = %8, %0
  %9 = phi i64 [ %13, %8 ], [ 0, %0 ]
  %10 = phi i32 [ %14, %8 ], [ 0, %0 ]
  %11 = getelementptr inbounds [100 x [100 x i8]], [100 x [100 x i8]]* %1, i64 0, i64 %9, i64 0
  %12 = call i32 (i8*, ...) @__isoc99_scanf(i8* getelementptr inbounds ([5 x i8], [5 x i8]* @.str, i64 0, i64 0), i8* nonnull %11, i8* nonnull %4)
  %13 = add nuw i64 %9, 1
  %14 = add nuw i32 %10, 1
  %15 = load i8, i8* %4, align 1, !tbaa !5
  %16 = icmp eq i8 %15, 10
  br i1 %16, label %17, label %8, !llvm.loop !8

17:                                               ; preds = %8
  %18 = call i32 (i8*, ...) bitcast (i32 (...)* @gets to i32 (i8*, ...)*)(i8* nonnull %6) #6
  %19 = call i32 (i8*, ...) bitcast (i32 (...)* @gets to i32 (i8*, ...)*)(i8* nonnull %7) #6
  %20 = zext i32 %14 to i64
  br label %21

21:                                               ; preds = %17, %28
  %22 = phi i64 [ 0, %17 ], [ %29, %28 ]
  %23 = getelementptr inbounds [100 x [100 x i8]], [100 x [100 x i8]]* %1, i64 0, i64 %22, i64 0
  %24 = call i32 @strcmp(i8* noundef nonnull %23, i8* noundef nonnull %6) #7
  %25 = icmp eq i32 %24, 0
  br i1 %25, label %26, label %28

26:                                               ; preds = %21
  %27 = call i8* @strcpy(i8* noundef nonnull %23, i8* noundef nonnull %7) #6
  br label %28

28:                                               ; preds = %21, %26
  %29 = add nuw nsw i64 %22, 1
  %30 = icmp eq i64 %29, %20
  br i1 %30, label %31, label %21, !llvm.loop !10

31:                                               ; preds = %28
  %32 = zext i32 %10 to i64
  br label %33

33:                                               ; preds = %31, %33
  %34 = phi i64 [ 0, %31 ], [ %39, %33 ]
  %35 = getelementptr inbounds [100 x [100 x i8]], [100 x [100 x i8]]* %1, i64 0, i64 %34, i64 0
  %36 = icmp eq i64 %34, %32
  %37 = select i1 %36, i32 10, i32 32
  %38 = call i32 (i8*, ...) @printf(i8* nonnull dereferenceable(1) getelementptr inbounds ([5 x i8], [5 x i8]* @.str, i64 0, i64 0), i8* nonnull %35, i32 %37)
  %39 = add nuw nsw i64 %34, 1
  %40 = icmp eq i64 %39, %20
  br i1 %40, label %41, label %33, !llvm.loop !11

41:                                               ; preds = %33
  call void @llvm.lifetime.end.p0i8(i64 1, i8* nonnull %4) #6
  call void @llvm.lifetime.end.p0i8(i64 100, i8* nonnull %7) #6
  call void @llvm.lifetime.end.p0i8(i64 100, i8* nonnull %6) #6
  call void @llvm.lifetime.end.p0i8(i64 10000, i8* nonnull %5) #6
  ret void
}

; Function Attrs: argmemonly mustprogress nofree nosync nounwind willreturn
declare void @llvm.lifetime.start.p0i8(i64 immarg, i8* nocapture) #1

; Function Attrs: nofree nounwind
declare noundef i32 @__isoc99_scanf(i8* nocapture noundef readonly, ...) local_unnamed_addr #2

declare i32 @gets(...) local_unnamed_addr #3

; Function Attrs: argmemonly mustprogress nofree nounwind readonly willreturn
declare i32 @strcmp(i8* nocapture, i8* nocapture) local_unnamed_addr #4

; Function Attrs: argmemonly mustprogress nofree nounwind willreturn
declare i8* @strcpy(i8* noalias returned writeonly, i8* noalias nocapture readonly) local_unnamed_addr #5

; Function Attrs: nofree nounwind
declare noundef i32 @printf(i8* nocapture noundef readonly, ...) local_unnamed_addr #2

; Function Attrs: argmemonly mustprogress nofree nosync nounwind willreturn
declare void @llvm.lifetime.end.p0i8(i64 immarg, i8* nocapture) #1


!llvm.module.flags = !{!0, !1, !2, !3}
!llvm.ident = !{!4}

!0 = !{i32 1, !"wchar_size", i32 4}
!1 = !{i32 7, !"PIC Level", i32 2}
!2 = !{i32 7, !"PIE Level", i32 2}
!3 = !{i32 7, !"uwtable", i32 1}
!4 = !{!"clang version 13.0.0"}
!5 = !{!6, !6, i64 0}
!6 = !{!"omnipotent char", !7, i64 0}
!7 = !{!"Simple C/C++ TBAA"}
!8 = distinct !{!8, !9}
!9 = !{!"llvm.loop.mustprogress"}
!10 = distinct !{!10, !9}
!11 = distinct !{!11, !9}
